; Function Attrs: mustprogress nounwind uwtable
define noundef i32 @LGBM_ByteBufferFree(ptr noundef %0) local_unnamed_addr #19 personality ptr @__gxx_personality_v0 {
  %2 = icmp eq ptr %0, null
  br i1 %2, label %7, label %3

3:                                                ; preds = %1
  %4 = getelementptr inbounds nuw i8, ptr %0, i64 8
  %5 = load ptr, ptr %4, align 8, !tbaa !199
  %.not.i.i.i.i = icmp eq ptr %5, null
  br i1 %.not.i.i.i.i, label %_ZN8LightGBM10ByteBufferD2Ev.exit, label %6

6:                                                ; preds = %3
  tail call void @_ZdlPv(ptr noundef nonnull %5) #39
  br label %_ZN8LightGBM10ByteBufferD2Ev.exit

_ZN8LightGBM10ByteBufferD2Ev.exit:                ; preds = %3, %6
  tail call void @_ZdlPv(ptr noundef nonnull %0) #39
  br label %7

7:                                                ; preds = %_ZN8LightGBM10ByteBufferD2Ev.exit, %1
  ret i32 0
}